; Function Attrs: mustprogress nofree norecurse nosync nounwind willreturn memory(read, inaccessiblemem: none) uwtable
define dso_local noundef range(i32 0, 4) i32 @_Z9SplitTestR7ConvexHRK7btPlane(ptr noundef nonnull readonly align 8 captures(none) dereferenceable(96) %0, ptr noundef nonnull readonly align 4 captures(none) dereferenceable(20) %1) local_unnamed_addr #6 {
  %3 = getelementptr inbounds nuw i8, ptr %0, i64 4
  %4 = load i32, ptr %3, align 4, !tbaa !20
  %5 = icmp sgt i32 %4, 0
  br i1 %5, label %.lr.ph, label %._crit_edge

.lr.ph:                                           ; preds = %2
  %6 = getelementptr inbounds nuw i8, ptr %0, i64 16
  %7 = load ptr, ptr %6, align 8, !tbaa !19
  %8 = load float, ptr %1, align 4, !tbaa !4
  %9 = getelementptr inbounds nuw i8, ptr %1, i64 4
  %10 = load float, ptr %9, align 4, !tbaa !4
  %11 = getelementptr inbounds nuw i8, ptr %1, i64 8
  %12 = load float, ptr %11, align 4, !tbaa !4
  %13 = getelementptr inbounds nuw i8, ptr %1, i64 16
  %14 = load float, ptr %13, align 4, !tbaa !8
  %15 = load float, ptr @planetestepsilon, align 4, !tbaa !4
  %16 = fneg float %15
  %wide.trip.count = zext nneg i32 %4 to i64
  br label %17

._crit_edge:                                      ; preds = %17, %2
  %.07.lcssa = phi i32 [ 0, %2 ], [ %32, %17 ]
  ret i32 %.07.lcssa

17:                                               ; preds = %.lr.ph, %17
  %indvars.iv = phi i64 [ 0, %.lr.ph ], [ %indvars.iv.next, %17 ]
  %.078 = phi i32 [ 0, %.lr.ph ], [ %32, %17 ]
  %18 = getelementptr inbounds nuw %class.btVector3, ptr %7, i64 %indvars.iv
  %19 = load float, ptr %18, align 4, !tbaa !4
  %20 = getelementptr inbounds nuw i8, ptr %18, i64 4
  %21 = load float, ptr %20, align 4, !tbaa !4
  %22 = fmul float %21, %10
  %23 = tail call float @llvm.fmuladd.f32(float %19, float %8, float %22)
  %24 = getelementptr inbounds nuw i8, ptr %18, i64 8
  %25 = load float, ptr %24, align 4, !tbaa !4
  %26 = tail call noundef float @llvm.fmuladd.f32(float %25, float %12, float %23)
  %27 = fadd float %26, %14
  %28 = fcmp ogt float %27, %15
  %29 = fcmp olt float %27, %16
  %30 = zext i1 %29 to i32
  %31 = select i1 %28, i32 2, i32 %30
  %32 = or i32 %31, %.078
  %indvars.iv.next = add nuw nsw i64 %indvars.iv, 1
  %exitcond.not = icmp eq i64 %indvars.iv.next, %wide.trip.count
  br i1 %exitcond.not, label %._crit_edge, label %17, !llvm.loop !45
}